target datalayout = "e-m:e-p270:32:32-p271:32:32-p272:64:64-i64:64-i128:128-f80:128-n8:16:32:64-S128"
target triple = "x86_64-pc-linux-gnu"

%struct.timeval = type { i64, i64 }
%struct.connection = type { i32, ptr, i32, %struct.timeval, ptr, i32 }
%struct.__va_list_tag = type { i32, i32, ptr, ptr }

@stats_head_window = internal global ptr null, align 8
@maxx = internal global i32 0, align 4
@__PRETTY_FUNCTION__.print_con_info = private unnamed_addr constant [49 x i8] c"void print_con_info(conn_t *, const char *, ...)\00", align 1
@.str.58 = private unnamed_addr constant [3 x i8] c"%s\00", align 1
@stdout = external global ptr, align 8

; Function Attrs: nounwind uwtable
define internal void @print_con_info(ptr noundef %0, ptr noundef %1, ...) #0 {
  %3 = alloca ptr, align 8
  %4 = alloca ptr, align 8
  %5 = alloca [1 x %struct.__va_list_tag], align 16
  %6 = alloca ptr, align 8
  %7 = alloca ptr, align 8
  store ptr %0, ptr %3, align 8
  store ptr %1, ptr %4, align 8
  %8 = getelementptr inbounds [1 x %struct.__va_list_tag], ptr %5, i64 0, i64 0
  call void @llvm.va_start.p0(ptr %8)
  %9 = load ptr, ptr @stats_head_window, align 8
  %10 = icmp ne ptr %9, null
  br i1 %10, label %11, label %60

11:                                               ; preds = %2
  %12 = load i32, ptr @maxx, align 4
  %13 = add i32 %12, 1
  %14 = zext i32 %13 to i64
  %15 = call noalias ptr @malloc(i64 noundef %14) #18
  store ptr %15, ptr %6, align 8
  store ptr null, ptr %7, align 8
  br label %16

16:                                               ; preds = %11
  %17 = load ptr, ptr %6, align 8
  %18 = icmp ne ptr %17, null
  br i1 %18, label %20, label %19

19:                                               ; preds = %16
  call void @exit_program(i32 noundef 3, ptr noundef @__PRETTY_FUNCTION__.print_con_info, i32 noundef 542) #16
  unreachable

20:                                               ; preds = %16
  br label %21

21:                                               ; preds = %20
  %22 = load ptr, ptr %6, align 8
  %23 = load i32, ptr @maxx, align 4
  %24 = add i32 %23, 1
  %25 = zext i32 %24 to i64
  call void @llvm.memset.p0.i64(ptr align 1 %22, i8 32, i64 %25, i1 false)
  %26 = load ptr, ptr %6, align 8
  %27 = load i32, ptr @maxx, align 4
  %28 = add i32 %27, 1
  %29 = zext i32 %28 to i64
  %30 = load ptr, ptr %4, align 8
  %31 = getelementptr inbounds [1 x %struct.__va_list_tag], ptr %5, i64 0, i64 0
  %32 = call i32 @vsnprintf(ptr noundef %26, i64 noundef %29, ptr noundef %30, ptr noundef %31) #13
  %33 = load ptr, ptr %6, align 8
  %34 = call ptr @strrchr(ptr noundef %33, i32 noundef 10) #14
  store ptr %34, ptr %7, align 8
  %35 = icmp ne ptr %34, null
  br i1 %35, label %36, label %38

36:                                               ; preds = %21
  %37 = load ptr, ptr %7, align 8
  store i8 32, ptr %37, align 1
  br label %38

38:                                               ; preds = %36, %21
  %39 = load ptr, ptr %6, align 8
  %40 = load ptr, ptr %6, align 8
  %41 = call i64 @strlen(ptr noundef %40) #14
  %42 = getelementptr inbounds i8, ptr %39, i64 %41
  store i8 32, ptr %42, align 1
  %43 = load ptr, ptr %6, align 8
  %44 = load i32, ptr @maxx, align 4
  %45 = zext i32 %44 to i64
  %46 = getelementptr inbounds i8, ptr %43, i64 %45
  store i8 0, ptr %46, align 1
  %47 = load ptr, ptr @stats_head_window, align 8
  %48 = call i32 @wattr_on(ptr noundef %47, i32 noundef 2097920, ptr noundef null)
  %49 = load ptr, ptr @stats_head_window, align 8
  %50 = load ptr, ptr %3, align 8
  %51 = getelementptr inbounds %struct.connection, ptr %50, i32 0, i32 5
  %52 = load i32, ptr %51, align 8
  %53 = load ptr, ptr %6, align 8
  %54 = call i32 (ptr, i32, i32, ptr, ...) @mvwprintw(ptr noundef %49, i32 noundef %52, i32 noundef 0, ptr noundef @.str.58, ptr noundef %53)
  %55 = load ptr, ptr @stats_head_window, align 8
  %56 = call i32 @wattr_off(ptr noundef %55, i32 noundef 2097920, ptr noundef null)
  %57 = load ptr, ptr @stats_head_window, align 8
  %58 = call i32 @wrefresh(ptr noundef %57)
  %59 = load ptr, ptr %6, align 8
  call void @free(ptr noundef %59) #13
  br label %65

60:                                               ; preds = %2
  %61 = load ptr, ptr @stdout, align 8
  %62 = load ptr, ptr %4, align 8
  %63 = getelementptr inbounds [1 x %struct.__va_list_tag], ptr %5, i64 0, i64 0
  %64 = call i32 @vfprintf(ptr noundef %61, ptr noundef %62, ptr noundef %63) #13
  br label %65

65:                                               ; preds = %60, %38
  %66 = getelementptr inbounds [1 x %struct.__va_list_tag], ptr %5, i64 0, i64 0
  call void @llvm.va_end.p0(ptr %66)
  ret void
}