; Function Attrs: nounwind uwtable
define internal void @print_con_info(ptr nocapture noundef readonly %0, ptr nocapture noundef readonly %1, ...) unnamed_addr #0 {
  %3 = alloca [1 x %struct.__va_list_tag], align 16
  call void @llvm.va_start.p0(ptr nonnull %3)
  %4 = load ptr, ptr @stats_head_window, align 8
  %.not = icmp eq ptr %4, null
  br i1 %.not, label %31, label %5

5:                                                ; preds = %2
  %6 = load i32, ptr @maxx, align 4
  %7 = add nsw i32 %6, 1
  %8 = zext i32 %7 to i64
  %9 = call noalias ptr @malloc(i64 noundef %8) #34
  %.not14 = icmp eq ptr %9, null
  br i1 %.not14, label %10, label %11

10:                                               ; preds = %5
  call fastcc void @exit_program(i32 noundef 3, ptr noundef nonnull @__PRETTY_FUNCTION__.print_con_info, i32 noundef 542) #29
  unreachable

11:                                               ; preds = %5
  call void @llvm.memset.p0.i64(ptr nonnull align 1 %9, i8 32, i64 %8, i1 false)
  %12 = call i32 @vsnprintf(ptr noundef nonnull %9, i64 noundef %8, ptr noundef %1, ptr noundef nonnull %3) #25
  %13 = call ptr @strrchr(ptr noundef nonnull dereferenceable(1) %9, i32 noundef 10) #26
  %.not15 = icmp eq ptr %13, null
  br i1 %.not15, label %15, label %14

14:                                               ; preds = %11
  store i8 32, ptr %13, align 1
  br label %15

15:                                               ; preds = %14, %11
  %16 = call i64 @strlen(ptr noundef nonnull dereferenceable(1) %9) #26
  %17 = getelementptr inbounds i8, ptr %9, i64 %16
  store i8 32, ptr %17, align 1
  %18 = load i32, ptr @maxx, align 4
  %19 = zext i32 %18 to i64
  %20 = getelementptr inbounds i8, ptr %9, i64 %19
  store i8 0, ptr %20, align 1
  %21 = load ptr, ptr @stats_head_window, align 8
  %22 = call i32 @wattr_on(ptr noundef %21, i32 noundef 2097920, ptr noundef null) #25
  %23 = load ptr, ptr @stats_head_window, align 8
  %24 = getelementptr inbounds i8, ptr %0, i64 48
  %25 = load i32, ptr %24, align 8
  %26 = call i32 (ptr, i32, i32, ptr, ...) @mvwprintw(ptr noundef %23, i32 noundef %25, i32 noundef 0, ptr noundef nonnull @.str.58, ptr noundef nonnull %9) #25
  %27 = load ptr, ptr @stats_head_window, align 8
  %28 = call i32 @wattr_off(ptr noundef %27, i32 noundef 2097920, ptr noundef null) #25
  %29 = load ptr, ptr @stats_head_window, align 8
  %30 = call i32 @wrefresh(ptr noundef %29) #25
  call void @free(ptr noundef nonnull %9) #25
  br label %34

31:                                               ; preds = %2
  %32 = load ptr, ptr @stdout, align 8
  %33 = call i32 @vfprintf(ptr noundef %32, ptr noundef %1, ptr noundef nonnull %3) #25
  br label %34

34:                                               ; preds = %31, %15
  call void @llvm.va_end.p0(ptr nonnull %3)
  ret void
}